; Function Attrs: uwtable
define void @_ZTv0_n40_N8QuantLib27StrippedCappedFlooredCoupon10deepUpdateEv(ptr noundef %this) unnamed_addr #12 align 2 {
entry:
  %vtable = load ptr, ptr %this, align 8, !tbaa !33
  %0 = getelementptr inbounds i8, ptr %vtable, i64 -40
  %1 = load i64, ptr %0, align 8
  %2 = getelementptr inbounds i8, ptr %this, i64 %1
  %add.ptr.i = getelementptr inbounds i8, ptr %2, i64 8
  %vtable.i = load ptr, ptr %add.ptr.i, align 8, !tbaa !33
  %vfn.i = getelementptr inbounds i8, ptr %vtable.i, i64 16
  %3 = load ptr, ptr %vfn.i, align 8
  tail call void %3(ptr noundef nonnull align 8 dereferenceable(12) %add.ptr.i)
  %underlying_.i = getelementptr inbounds nuw i8, ptr %2, i64 176
  %4 = load ptr, ptr %underlying_.i, align 8, !tbaa !50
  %cmp.not.i.i = icmp eq ptr %4, null
  br i1 %cmp.not.i.i, label %cond.false.i.i, label %_ZN8QuantLib27StrippedCappedFlooredCoupon10deepUpdateEv.exit, !prof !52

cond.false.i.i:                                   ; preds = %entry
  tail call void @_ZN5boost16assertion_failedEPKcS1_S1_l(ptr noundef nonnull @.str.11, ptr noundef nonnull @__PRETTY_FUNCTION__._ZNK5boost10shared_ptrIN8QuantLib19CappedFlooredCouponEEptEv, ptr noundef nonnull @.str.12, i64 noundef 784)
  %.pre.i.i = load ptr, ptr %underlying_.i, align 8, !tbaa !50
  br label %_ZN8QuantLib27StrippedCappedFlooredCoupon10deepUpdateEv.exit

_ZN8QuantLib27StrippedCappedFlooredCoupon10deepUpdateEv.exit: ; preds = %entry, %cond.false.i.i
  %5 = phi ptr [ %4, %entry ], [ %.pre.i.i, %cond.false.i.i ]
  %vtable2.i = load ptr, ptr %5, align 8, !tbaa !33
  %vfn3.i = getelementptr inbounds i8, ptr %vtable2.i, i64 136
  %6 = load ptr, ptr %vfn3.i, align 8
  tail call void %6(ptr noundef nonnull align 8 dereferenceable(216) %5)
  ret void
}